target datalayout = "e-m:e-p270:32:32-p271:32:32-p272:64:64-i64:64-i128:128-f80:128-n8:16:32:64-S128"
target triple = "x86_64-pc-linux-gnu"

%struct.prov_aes_ctx_st = type { %struct.prov_cipher_ctx_st, %union.anon.0, %union.anon.1 }
%struct.prov_cipher_ctx_st = type { [16 x i8], [16 x i8], [16 x i8], ptr, %union.anon, i32, i64, i64, i64, i64, i32, i8, i32, ptr, i32, i64, i32, i64, i32, ptr, ptr, ptr }
%union.anon = type { ptr }
%union.anon.0 = type { double, [240 x i8] }
%union.anon.1 = type { i32 }
%struct.prov_cipher_hw_st = type { ptr, ptr, ptr }

@.str = private unnamed_addr constant [58 x i8] c"../openssl/providers/implementations/ciphers/cipher_aes.c\00", align 1

; Function Attrs: nounwind uwtable
define internal ptr @aes_dupctx(ptr noundef %0) #0 {
  %2 = alloca ptr, align 8
  %3 = alloca ptr, align 8
  %4 = alloca ptr, align 8
  %5 = alloca ptr, align 8
  %6 = alloca i32, align 4
  store ptr %0, ptr %3, align 8, !tbaa !3
  call void @llvm.lifetime.start.p0(i64 8, ptr %4) #3
  %7 = load ptr, ptr %3, align 8, !tbaa !3
  store ptr %7, ptr %4, align 8, !tbaa !7
  call void @llvm.lifetime.start.p0(i64 8, ptr %5) #3
  %8 = call i32 @ossl_prov_is_running()
  %9 = icmp ne i32 %8, 0
  br i1 %9, label %11, label %10

10:                                               ; preds = %1
  store ptr null, ptr %2, align 8
  store i32 1, ptr %6, align 4
  br label %28

11:                                               ; preds = %1
  %12 = call noalias ptr @CRYPTO_malloc(i64 noundef 448, ptr noundef @.str, i32 noundef 42)
  store ptr %12, ptr %5, align 8, !tbaa !7
  %13 = load ptr, ptr %5, align 8, !tbaa !7
  %14 = icmp eq ptr %13, null
  br i1 %14, label %15, label %16

15:                                               ; preds = %11
  store ptr null, ptr %2, align 8
  store i32 1, ptr %6, align 4
  br label %28

16:                                               ; preds = %11
  %17 = load ptr, ptr %4, align 8, !tbaa !7
  %18 = getelementptr inbounds nuw %struct.prov_aes_ctx_st, ptr %17, i32 0, i32 0
  %19 = getelementptr inbounds nuw %struct.prov_cipher_ctx_st, ptr %18, i32 0, i32 19
  %20 = load ptr, ptr %19, align 8, !tbaa !9
  %21 = getelementptr inbounds nuw %struct.prov_cipher_hw_st, ptr %20, i32 0, i32 2
  %22 = load ptr, ptr %21, align 8, !tbaa !17
  %23 = load ptr, ptr %5, align 8, !tbaa !7
  %24 = getelementptr inbounds nuw %struct.prov_aes_ctx_st, ptr %23, i32 0, i32 0
  %25 = load ptr, ptr %4, align 8, !tbaa !7
  %26 = getelementptr inbounds nuw %struct.prov_aes_ctx_st, ptr %25, i32 0, i32 0
  call void %22(ptr noundef %24, ptr noundef %26)
  %27 = load ptr, ptr %5, align 8, !tbaa !7
  store ptr %27, ptr %2, align 8
  store i32 1, ptr %6, align 4
  br label %28

28:                                               ; preds = %16, %15, %10
  call void @llvm.lifetime.end.p0(i64 8, ptr %5) #3
  call void @llvm.lifetime.end.p0(i64 8, ptr %4) #3
  %29 = load ptr, ptr %2, align 8
  ret ptr %29
}